M68HC11 GAS  soft.s 			page 1


   1                 	;;;-----------------------------------------
   2                 	;;; Start MC68HC11 gcc assembly output
   3                 	;;; gcc compiler 3.3.6-m68hc1x-20060122
   4                 	;;; Command:	/usr/lib/gcc-lib/m68hc11/3.3.6-m68hc1x-20060122/cc1 -quiet -D__GNUC__=3 -D__GNUC_MINOR
   5                 	;;; Compiled:	Wed Jan 29 12:17:40 2020
   6                 	;;; (META)compiled by GNU C version 6.3.0 20170221.
   7                 	;;;-----------------------------------------
   8                 		.file	"main.c"
   9                 		.mode mshort
  10                 		.globl	sto_count
  11                 		.sect	.data
  12                 		.type	sto_count, @object
  13                 		.size	sto_count, 2
  14                 	sto_count:
  15 0000 00 00       		.word	0
  16                 		.globl	lto_count
  17                 		.type	lto_count, @object
  18                 		.size	lto_count, 2
  19                 	lto_count:
  20 0002 00 00       		.word	0
  21                 		.globl	state
  22                 		.type	state, @object
  23                 		.size	state, 1
  24                 	state:
  25 0004 00          		.byte	0
  26                 		.globl	is_car
  27                 		.type	is_car, @object
  28                 		.size	is_car, 1
  29                 	is_car:
  30 0005 00          		.byte	0
  31                 		.globl	is_wait
  32                 		.type	is_wait, @object
  33                 		.size	is_wait, 1
  34                 	is_wait:
  35 0006 01          		.byte	1
  36                 		.globl	sto_flag
  37                 		.type	sto_flag, @object
  38                 		.size	sto_flag, 1
  39                 	sto_flag:
  40 0007 00          		.byte	0
  41                 		.globl	lto_flag
  42                 		.type	lto_flag, @object
  43                 		.size	lto_flag, 1
  44                 	lto_flag:
  45 0008 00          		.byte	0
  46                 		.globl	isr_str
  47                 		.type	isr_str, @object
  48                 		.size	isr_str, 100
  49                 	isr_str:
  50 0009 49 53 52 20 		.string	"ISR Happened!\n\004"
  50      48 61 70 70 
  50      65 6E 65 64 
  50      21 0A 04 00 
  51 0019 00 00 00 00 		.zero	84
  51      00 00 00 00 
  51      00 00 00 00 
  51      00 00 00 00 
M68HC11 GAS  soft.s 			page 2


  51      00 00 00 00 
  52                 		.globl	here_str
  53                 		.type	here_str, @object
  54                 		.size	here_str, 100
  55                 	here_str:
  56 006d 49 27 6D 20 		.string	"I'm here!!\n\004"
  56      68 65 72 65 
  56      21 21 0A 04 
  56      00 
  57 007a 00 00 00 00 		.zero	87
  57      00 00 00 00 
  57      00 00 00 00 
  57      00 00 00 00 
  57      00 00 00 00 
  58                 		.globl	a_str
  59                 		.type	a_str, @object
  60                 		.size	a_str, 100
  61                 	a_str:
  62 00d1 61 04 00    		.string	"a\004"
  63 00d4 00 00 00 00 		.zero	97
  63      00 00 00 00 
  63      00 00 00 00 
  63      00 00 00 00 
  63      00 00 00 00 
  64                 		.globl	b_str
  65                 		.type	b_str, @object
  66                 		.size	b_str, 100
  67                 	b_str:
  68 0135 62 04 00    		.string	"b\004"
  69 0138 00 00 00 00 		.zero	97
  69      00 00 00 00 
  69      00 00 00 00 
  69      00 00 00 00 
  69      00 00 00 00 
  70                 		.globl	c_str
  71                 		.type	c_str, @object
  72                 		.size	c_str, 100
  73                 	c_str:
  74 0199 63 04 00    		.string	"c\004"
  75 019c 00 00 00 00 		.zero	97
  75      00 00 00 00 
  75      00 00 00 00 
  75      00 00 00 00 
  75      00 00 00 00 
  76                 		.globl	d_str
  77                 		.type	d_str, @object
  78                 		.size	d_str, 100
  79                 	d_str:
  80 01fd 64 04 00    		.string	"d\004"
  81 0200 00 00 00 00 		.zero	97
  81      00 00 00 00 
  81      00 00 00 00 
  81      00 00 00 00 
  81      00 00 00 00 
  82                 		.globl	e_str
  83                 		.type	e_str, @object
  84                 		.size	e_str, 100
M68HC11 GAS  soft.s 			page 3


  85                 	e_str:
  86 0261 65 04 00    		.string	"e\004"
  87 0264 00 00 00 00 		.zero	97
  87      00 00 00 00 
  87      00 00 00 00 
  87      00 00 00 00 
  87      00 00 00 00 
  88                 		.globl	f_str
  89                 		.type	f_str, @object
  90                 		.size	f_str, 100
  91                 	f_str:
  92 02c5 66 04 00    		.string	"f\004"
  93 02c8 00 00 00 00 		.zero	97
  93      00 00 00 00 
  93      00 00 00 00 
  93      00 00 00 00 
  93      00 00 00 00 
  94                 		.globl	g_str
  95                 		.type	g_str, @object
  96                 		.size	g_str, 100
  97                 	g_str:
  98 0329 67 04 00    		.string	"g\004"
  99 032c 00 00 00 00 		.zero	97
  99      00 00 00 00 
  99      00 00 00 00 
  99      00 00 00 00 
  99      00 00 00 00 
 100                 		; extern	frame_sync_isr
 101                 		; extern	set_light_out
 102                 		; extern	read_car_in
 103                 		; extern	update_sto
 104                 		; extern	update_lto
 105                 		; extern	update_state
 106                 		.sect	.text
 107                 		.globl	_start
 108                 		.type	_start,@function
 109                 	_start:
 110                 	; Begin inline assembler code
 111                 	#APP
 112 0000 0F          		sei
 113                 	; End of inline assembler code
 114                 	#NO_APP
 115 0001 CE 00 DC    		ldx	#220
 116 0004 C6 7E       		ldab	#126
 117 0006 E7 00       		stab	0,x
 118 0008 CE 00 DD    		ldx	#221
 119 000b CC 00 00    		ldd	#frame_sync_isr
 120 000e ED 00       		std	0,x
 121 0010 CE 10 22    		ldx	#4130
 122 0013 1C 00 40    		bset	0,x, #64
 123 0016 CE 10 23    		ldx	#4131
 124 0019 1C 00 40    		bset	0,x, #64
 125 001c CE 10 0E    		ldx	#4110
 126 001f EC 00       		ldd	0,x
 127 0021 C3 4E 20    		addd	#20000
 128 0024 CE 10 18    		ldx	#4120
 129 0027 ED 00       		std	0,x
M68HC11 GAS  soft.s 			page 4


 130                 	; Begin inline assembler code
 131                 	#APP
 132 0029 0E          		cli
 133                 	; End of inline assembler code
 134                 	#NO_APP
 135                 	.L9:
 136 002a BD 00 00    		bsr	set_light_out
 137 002d C6 01       		ldab	#1
 138 002f F7 00 00    		stab	is_wait
 139                 	.L5:
 140 0032 F6 00 00    		ldab	is_wait
 141 0035 C1 01       		cmpb	#1
 142 0037 27 F9       		beq	.L5
 143 0039 8D 2F       		bsr	read_car_in
 144 003b 8D 3B       		bsr	update_sto
 145 003d 8D 62       		bsr	update_lto
 146 003f BD 00 00    		bsr	update_state
 147 0042 20 E6       		bra	.L9
 148                 		.size	_start, .-_start
 149                 		.globl	frame_sync_isr
 150                 		.type	frame_sync_isr,@function
 151                 		.interrupt	frame_sync_isr
 152                 	frame_sync_isr:
 153 0044 DE 00       		ldx	*_.tmp
 154 0046 3C          		pshx
 155 0047 DE 00       		ldx	*_.z
 156 0049 3C          		pshx
 157 004a DE 00       		ldx	*_.xy
 158 004c 3C          		pshx
 159 004d CE 10 23    		ldx	#4131
 160 0050 1C 00 40    		bset	0,x, #64
 161 0053 CE 10 18    		ldx	#4120
 162 0056 EC 00       		ldd	0,x
 163 0058 C3 4E 20    		addd	#20000
 164 005b ED 00       		std	0,x
 165 005d 7F 00 00    		clr	is_wait
 166 0060 38          		pulx
 167 0061 DF 00       		stx	*_.xy
 168 0063 38          		pulx
 169 0064 DF 00       		stx	*_.z
 170 0066 38          		pulx
 171 0067 DF 00       		stx	*_.tmp
 172 0069 3B          		rti
 173                 		.size	frame_sync_isr, .-frame_sync_isr
 174                 		.globl	read_car_in
 175                 		.type	read_car_in,@function
 176                 	read_car_in:
 177 006a CE 10 00    		ldx	#4096
 178 006d E6 00       		ldab	0,x
 179 006f 04          		lsrd
 180 0070 84 00       		anda	#0
 181 0072 C4 01       		andb	#1
 182 0074 F7 00 00    		stab	is_car
 183 0077 39          		rts
 184                 		.size	read_car_in, .-read_car_in
 185                 		.globl	update_sto
 186                 		.type	update_sto,@function
M68HC11 GAS  soft.s 			page 5


 187                 	update_sto:
 188 0078 34          		des
 189 0079 FC 00 00    		ldd	sto_count
 190 007c 1A 83 01 2B 		cpd	#299
 191 0080 22 07       		bhi	.L13
 192 0082 FE 00 00    		ldx	sto_count
 193 0085 08          		inx
 194 0086 FF 00 00    		stx	sto_count
 195                 	.L13:
 196 0089 30          		tsx
 197 008a 6F 00       		clr	0,x
 198 008c FC 00 00    		ldd	sto_count
 199 008f 1A 83 01 2C 		cpd	#300
 200 0093 26 04       		bne	.L14
 201 0095 C6 01       		ldab	#1
 202 0097 E7 00       		stab	0,x
 203                 	.L14:
 204 0099 30          		tsx
 205 009a E6 00       		ldab	0,x
 206 009c F7 00 00    		stab	sto_flag
 207 009f 31          		ins
 208 00a0 39          		rts
 209                 		.size	update_sto, .-update_sto
 210                 		.globl	update_lto
 211                 		.type	update_lto,@function
 212                 	update_lto:
 213 00a1 34          		des
 214 00a2 FC 00 00    		ldd	lto_count
 215 00a5 1A 83 03 E7 		cpd	#999
 216 00a9 22 07       		bhi	.L16
 217 00ab FE 00 00    		ldx	lto_count
 218 00ae 08          		inx
 219 00af FF 00 00    		stx	lto_count
 220                 	.L16:
 221 00b2 30          		tsx
 222 00b3 6F 00       		clr	0,x
 223 00b5 FC 00 00    		ldd	lto_count
 224 00b8 1A 83 03 E8 		cpd	#1000
 225 00bc 26 04       		bne	.L17
 226 00be C6 01       		ldab	#1
 227 00c0 E7 00       		stab	0,x
 228                 	.L17:
 229 00c2 30          		tsx
 230 00c3 E6 00       		ldab	0,x
 231 00c5 F7 00 00    		stab	lto_flag
 232 00c8 31          		ins
 233 00c9 39          		rts
 234                 		.size	update_lto, .-update_lto
 235                 		.globl	update_state
 236                 		.type	update_state,@function
 237                 	update_state:
 238 00ca F6 00 00    		ldab	state
 239 00cd D7 01       		stab	*_.tmp+1
 240 00cf DE 00       		ldx	*_.tmp
 241 00d1 8F          		xgdx
 242 00d2 4F          		clra
 243 00d3 8F          		xgdx
M68HC11 GAS  soft.s 			page 6


 244 00d4 8C 00 40    		cpx	#64
 245 00d7 27 67       		beq	.L30
 246 00d9 2E 0B       		bgt	.L34
 247 00db 8C 00 00    		cpx	#0
 248 00de 27 0C       		beq	.L20
 249 00e0 8C 00 20    		cpx	#32
 250 00e3 27 25       		beq	.L23
 251 00e5 39          		rts
 252                 	.L34:
 253 00e6 8C 00 60    		cpx	#96
 254 00e9 27 30       		beq	.L26
 255 00eb 39          		rts
 256                 	.L20:
 257 00ec F6 00 00    		ldab	is_car
 258 00ef C1 01       		cmpb	#1
 259 00f1 26 13       		bne	.L21
 260 00f3 F6 00 00    		ldab	lto_flag
 261 00f6 C1 01       		cmpb	#1
 262 00f8 26 0C       		bne	.L21
 263 00fa C6 20       		ldab	#32
 264 00fc F7 00 00    		stab	state
 265 00ff FF 00 00    		stx	sto_count
 266 0102 FF 00 00    		stx	lto_count
 267 0105 39          		rts
 268                 	.L21:
 269 0106 7F 00 00    		clr	state
 270 0109 39          		rts
 271                 	.L23:
 272 010a F6 00 00    		ldab	sto_flag
 273 010d C1 01       		cmpb	#1
 274 010f 26 04       		bne	.L24
 275 0111 C6 60       		ldab	#96
 276 0113 20 1B       		bra	.L35
 277                 	.L24:
 278 0115 C6 20       		ldab	#32
 279 0117 F7 00 00    		stab	state
 280 011a 39          		rts
 281                 	.L26:
 282 011b F6 00 00    		ldab	is_car
 283 011e 26 07       		bne	.L29
 284 0120 F6 00 00    		ldab	sto_flag
 285 0123 C1 01       		cmpb	#1
 286 0125 27 07       		beq	.L28
 287                 	.L29:
 288 0127 F6 00 00    		ldab	lto_flag
 289 012a C1 01       		cmpb	#1
 290 012c 26 28       		bne	.L18
 291                 	.L28:
 292 012e C6 40       		ldab	#64
 293                 	.L35:
 294 0130 F7 00 00    		stab	state
 295 0133 7F 00 01    		clr	sto_count+1
 296 0136 7F 00 00    		clr	sto_count
 297 0139 7F 00 01    		clr	lto_count+1
 298 013c 7F 00 00    		clr	lto_count
 299 013f 39          		rts
 300                 	.L30:
M68HC11 GAS  soft.s 			page 7


 301 0140 F6 00 00    		ldab	sto_flag
 302 0143 C1 01       		cmpb	#1
 303 0145 26 0F       		bne	.L18
 304 0147 7F 00 00    		clr	state
 305 014a 7F 00 01    		clr	sto_count+1
 306 014d 7F 00 00    		clr	sto_count
 307 0150 7F 00 01    		clr	lto_count+1
 308 0153 7F 00 00    		clr	lto_count
 309                 	.L18:
 310 0156 39          		rts
 311                 		.size	update_state, .-update_state
 312                 		.globl	set_light_out
 313                 		.type	set_light_out,@function
 314                 	set_light_out:
 315 0157 3C          		pshx
 316 0158 CE 10 00    		ldx	#4096
 317 015b E6 00       		ldab	0,x
 318 015d C4 9F       		andb	#-97
 319 015f 18 30       		tsy
 320 0161 18 E7 00    		stab	0,y
 321 0164 F6 00 00    		ldab	state
 322 0167 18 EA 00    		orab	0,y
 323 016a 18 E7 01    		stab	1,y
 324 016d E7 00       		stab	0,x
 325 016f 38          		pulx
 326 0170 39          		rts
 327                 		.size	set_light_out, .-set_light_out
 328                 		.ident	"GCC: (GNU) 3.3.6-m68hc1x-20060122"
   1                 	;===================
   2                 	; soft registers
   3                 	;===================
   4                 	.sect softregs
   5                 	.global _.d1
   6                 	_.d1: .word
   7                 	.global _.tmp
   8                 	_.tmp: .word
   9                 	.global _.z
  10                 	_.z: .word
  11                 	.global _.xy
  12                 	_.xy: .word
  13                 	
M68HC11 GAS  soft.s 			page 8


DEFINED SYMBOLS
                            *ABS*:0000000000000000 main.c
              main.s:0      .text:0000000000000000 L0F0
              main.s:14     .data:0000000000000000 sto_count
              main.s:19     .data:0000000000000002 lto_count
              main.s:24     .data:0000000000000004 state
              main.s:29     .data:0000000000000005 is_car
              main.s:34     .data:0000000000000006 is_wait
              main.s:39     .data:0000000000000007 sto_flag
              main.s:44     .data:0000000000000008 lto_flag
              main.s:49     .data:0000000000000009 isr_str
              main.s:55     .data:000000000000006d here_str
              main.s:61     .data:00000000000000d1 a_str
              main.s:67     .data:0000000000000135 b_str
              main.s:73     .data:0000000000000199 c_str
              main.s:79     .data:00000000000001fd d_str
              main.s:85     .data:0000000000000261 e_str
              main.s:91     .data:00000000000002c5 f_str
              main.s:97     .data:0000000000000329 g_str
              main.s:109    .text:0000000000000000 _start
              main.s:112    .text:0000000000000000 L0L0
              main.s:115    .text:0000000000000001 L0L1
              main.s:116    .text:0000000000000004 L0L2
              main.s:117    .text:0000000000000006 L0L3
              main.s:118    .text:0000000000000008 L0L4
              main.s:119    .text:000000000000000b L0L5
              main.s:152    .text:0000000000000044 frame_sync_isr
              main.s:120    .text:000000000000000e L0L6
              main.s:121    .text:0000000000000010 L0L7
              main.s:122    .text:0000000000000013 L0L8
              main.s:123    .text:0000000000000016 L0L9
              main.s:124    .text:0000000000000019 L0L10
              main.s:125    .text:000000000000001c L0L11
              main.s:126    .text:000000000000001f L0L12
              main.s:127    .text:0000000000000021 L0L13
              main.s:128    .text:0000000000000024 L0L14
              main.s:129    .text:0000000000000027 L0L15
              main.s:132    .text:0000000000000029 L0L16
              main.s:136    .text:000000000000002a L0L17
              main.s:314    .text:0000000000000157 set_light_out
              main.s:137    .text:000000000000002d L0L18
              main.s:138    .text:000000000000002f L0L19
              main.s:140    .text:0000000000000032 L0L20
              main.s:141    .text:0000000000000035 L0L21
              main.s:142    .text:0000000000000037 L0L22
              main.s:143    .text:0000000000000039 L0L23
              main.s:176    .text:000000000000006a read_car_in
              main.s:144    .text:000000000000003b L0L24
              main.s:187    .text:0000000000000078 update_sto
              main.s:145    .text:000000000000003d L0L25
              main.s:212    .text:00000000000000a1 update_lto
              main.s:146    .text:000000000000003f L0L26
              main.s:237    .text:00000000000000ca update_state
              main.s:147    .text:0000000000000042 L0L27
              main.s:153    .text:0000000000000044 L0L28
              soft.s:8      softregs:0000000000000000 _.tmp
              main.s:154    .text:0000000000000046 L0L29
M68HC11 GAS  soft.s 			page 9


              main.s:155    .text:0000000000000047 L0L30
              soft.s:10     softregs:0000000000000000 _.z
              main.s:156    .text:0000000000000049 L0L31
              main.s:157    .text:000000000000004a L0L32
              soft.s:12     softregs:0000000000000000 _.xy
              main.s:158    .text:000000000000004c L0L33
              main.s:159    .text:000000000000004d L0L34
              main.s:160    .text:0000000000000050 L0L35
              main.s:161    .text:0000000000000053 L0L36
              main.s:162    .text:0000000000000056 L0L37
              main.s:163    .text:0000000000000058 L0L38
              main.s:164    .text:000000000000005b L0L39
              main.s:165    .text:000000000000005d L0L40
              main.s:166    .text:0000000000000060 L0L41
              main.s:167    .text:0000000000000061 L0L42
              main.s:168    .text:0000000000000063 L0L43
              main.s:169    .text:0000000000000064 L0L44
              main.s:170    .text:0000000000000066 L0L45
              main.s:171    .text:0000000000000067 L0L46
              main.s:172    .text:0000000000000069 L0L47
              main.s:177    .text:000000000000006a L0L48
              main.s:178    .text:000000000000006d L0L49
              main.s:179    .text:000000000000006f L0L50
              main.s:180    .text:0000000000000070 L0L51
              main.s:181    .text:0000000000000072 L0L52
              main.s:182    .text:0000000000000074 L0L53
              main.s:183    .text:0000000000000077 L0L54
              main.s:188    .text:0000000000000078 L0L55
              main.s:189    .text:0000000000000079 L0L56
              main.s:190    .text:000000000000007c L0L57
              main.s:191    .text:0000000000000080 L0L58
              main.s:192    .text:0000000000000082 L0L59
              main.s:193    .text:0000000000000085 L0L60
              main.s:194    .text:0000000000000086 L0L61
              main.s:196    .text:0000000000000089 L0L62
              main.s:197    .text:000000000000008a L0L63
              main.s:198    .text:000000000000008c L0L64
              main.s:199    .text:000000000000008f L0L65
              main.s:200    .text:0000000000000093 L0L66
              main.s:201    .text:0000000000000095 L0L67
              main.s:202    .text:0000000000000097 L0L68
              main.s:204    .text:0000000000000099 L0L69
              main.s:205    .text:000000000000009a L0L70
              main.s:206    .text:000000000000009c L0L71
              main.s:207    .text:000000000000009f L0L72
              main.s:208    .text:00000000000000a0 L0L73
              main.s:213    .text:00000000000000a1 L0L74
              main.s:214    .text:00000000000000a2 L0L75
              main.s:215    .text:00000000000000a5 L0L76
              main.s:216    .text:00000000000000a9 L0L77
              main.s:217    .text:00000000000000ab L0L78
              main.s:218    .text:00000000000000ae L0L79
              main.s:219    .text:00000000000000af L0L80
              main.s:221    .text:00000000000000b2 L0L81
              main.s:222    .text:00000000000000b3 L0L82
              main.s:223    .text:00000000000000b5 L0L83
              main.s:224    .text:00000000000000b8 L0L84
M68HC11 GAS  soft.s 			page 10


              main.s:225    .text:00000000000000bc L0L85
              main.s:226    .text:00000000000000be L0L86
              main.s:227    .text:00000000000000c0 L0L87
              main.s:229    .text:00000000000000c2 L0L88
              main.s:230    .text:00000000000000c3 L0L89
              main.s:231    .text:00000000000000c5 L0L90
              main.s:232    .text:00000000000000c8 L0L91
              main.s:233    .text:00000000000000c9 L0L92
              main.s:238    .text:00000000000000ca L0L93
              main.s:239    .text:00000000000000cd L0L94
              main.s:240    .text:00000000000000cf L0L95
              main.s:241    .text:00000000000000d1 L0L96
              main.s:242    .text:00000000000000d2 L0L97
              main.s:243    .text:00000000000000d3 L0L98
              main.s:244    .text:00000000000000d4 L0L99
              main.s:245    .text:00000000000000d7 L0L100
              main.s:246    .text:00000000000000d9 L0L101
              main.s:247    .text:00000000000000db L0L102
              main.s:248    .text:00000000000000de L0L103
              main.s:249    .text:00000000000000e0 L0L104
              main.s:250    .text:00000000000000e3 L0L105
              main.s:251    .text:00000000000000e5 L0L106
              main.s:253    .text:00000000000000e6 L0L107
              main.s:254    .text:00000000000000e9 L0L108
              main.s:255    .text:00000000000000eb L0L109
              main.s:257    .text:00000000000000ec L0L110
              main.s:258    .text:00000000000000ef L0L111
              main.s:259    .text:00000000000000f1 L0L112
              main.s:260    .text:00000000000000f3 L0L113
              main.s:261    .text:00000000000000f6 L0L114
              main.s:262    .text:00000000000000f8 L0L115
              main.s:263    .text:00000000000000fa L0L116
              main.s:264    .text:00000000000000fc L0L117
              main.s:265    .text:00000000000000ff L0L118
              main.s:266    .text:0000000000000102 L0L119
              main.s:267    .text:0000000000000105 L0L120
              main.s:269    .text:0000000000000106 L0L121
              main.s:270    .text:0000000000000109 L0L122
              main.s:272    .text:000000000000010a L0L123
              main.s:273    .text:000000000000010d L0L124
              main.s:274    .text:000000000000010f L0L125
              main.s:275    .text:0000000000000111 L0L126
              main.s:276    .text:0000000000000113 L0L127
              main.s:278    .text:0000000000000115 L0L128
              main.s:279    .text:0000000000000117 L0L129
              main.s:280    .text:000000000000011a L0L130
              main.s:282    .text:000000000000011b L0L131
              main.s:283    .text:000000000000011e L0L132
              main.s:284    .text:0000000000000120 L0L133
              main.s:285    .text:0000000000000123 L0L134
              main.s:286    .text:0000000000000125 L0L135
              main.s:288    .text:0000000000000127 L0L136
              main.s:289    .text:000000000000012a L0L137
              main.s:290    .text:000000000000012c L0L138
              main.s:292    .text:000000000000012e L0L139
              main.s:294    .text:0000000000000130 L0L140
              main.s:295    .text:0000000000000133 L0L141
M68HC11 GAS  soft.s 			page 11


              main.s:296    .text:0000000000000136 L0L142
              main.s:297    .text:0000000000000139 L0L143
              main.s:298    .text:000000000000013c L0L144
              main.s:299    .text:000000000000013f L0L145
              main.s:301    .text:0000000000000140 L0L146
              main.s:302    .text:0000000000000143 L0L147
              main.s:303    .text:0000000000000145 L0L148
              main.s:304    .text:0000000000000147 L0L149
              main.s:305    .text:000000000000014a L0L150
              main.s:306    .text:000000000000014d L0L151
              main.s:307    .text:0000000000000150 L0L152
              main.s:308    .text:0000000000000153 L0L153
              main.s:310    .text:0000000000000156 L0L154
              main.s:315    .text:0000000000000157 L0L155
              main.s:316    .text:0000000000000158 L0L156
              main.s:317    .text:000000000000015b L0L157
              main.s:318    .text:000000000000015d L0L158
              main.s:319    .text:000000000000015f L0L159
              main.s:320    .text:0000000000000161 L0L160
              main.s:321    .text:0000000000000164 L0L161
              main.s:322    .text:0000000000000167 L0L162
              main.s:323    .text:000000000000016a L0L163
              main.s:324    .text:000000000000016d L0L164
              main.s:325    .text:000000000000016f L0L165
              main.s:326    .text:0000000000000170 L0L166
              soft.s:0      .text:0000000000000171 L0F1
              soft.s:6      softregs:0000000000000000 _.d1

NO UNDEFINED SYMBOLS
